target datalayout = "e-m:e-p270:32:32-p271:32:32-p272:64:64-i64:64-i128:128-f80:128-n8:16:32:64-S128"
target triple = "x86_64-pc-linux-gnu"

; Function Attrs: mustprogress uwtable
define noundef i32 @_ZN3zmq12udp_engine_t22set_udp_multicast_loopEibb(i32 noundef %0, i1 noundef zeroext %1, i1 noundef zeroext %2) #0 align 2 {
  %4 = alloca i32, align 4
  %5 = alloca i8, align 1
  %6 = alloca i8, align 1
  %7 = alloca i32, align 4
  %8 = alloca i32, align 4
  %9 = alloca i32, align 4
  %10 = alloca i32, align 4
  store i32 %0, ptr %4, align 4, !tbaa !83
  %11 = zext i1 %1 to i8
  store i8 %11, ptr %5, align 1, !tbaa !86
  %12 = zext i1 %2 to i8
  store i8 %12, ptr %6, align 1, !tbaa !86
  call void @llvm.lifetime.start.p0(i64 4, ptr %7) #21
  call void @llvm.lifetime.start.p0(i64 4, ptr %8) #21
  %13 = load i8, ptr %5, align 1, !tbaa !86, !range !77, !noundef !78
  %14 = trunc i8 %13 to i1
  br i1 %14, label %15, label %16

15:                                               ; preds = %3
  store i32 41, ptr %7, align 4, !tbaa !83
  store i32 19, ptr %8, align 4, !tbaa !83
  br label %17

16:                                               ; preds = %3
  store i32 0, ptr %7, align 4, !tbaa !83
  store i32 34, ptr %8, align 4, !tbaa !83
  br label %17

17:                                               ; preds = %16, %15
  call void @llvm.lifetime.start.p0(i64 4, ptr %9) #21
  %18 = load i8, ptr %6, align 1, !tbaa !86, !range !77, !noundef !78
  %19 = trunc i8 %18 to i1
  %20 = select i1 %19, i32 1, i32 0
  store i32 %20, ptr %9, align 4, !tbaa !83
  call void @llvm.lifetime.start.p0(i64 4, ptr %10) #21
  %21 = load i32, ptr %4, align 4, !tbaa !83
  %22 = load i32, ptr %7, align 4, !tbaa !83
  %23 = load i32, ptr %8, align 4, !tbaa !83
  %24 = call i32 @setsockopt(i32 noundef %21, i32 noundef %22, i32 noundef %23, ptr noundef %9, i32 noundef 4) #21
  store i32 %24, ptr %10, align 4, !tbaa !83
  %25 = load i32, ptr %4, align 4, !tbaa !83
  %26 = load i32, ptr %10, align 4, !tbaa !83
  call void @_ZN3zmq29assert_success_or_recoverableEii(i32 noundef %25, i32 noundef %26)
  %27 = load i32, ptr %10, align 4, !tbaa !83
  call void @llvm.lifetime.end.p0(i64 4, ptr %10) #21
  call void @llvm.lifetime.end.p0(i64 4, ptr %9) #21
  call void @llvm.lifetime.end.p0(i64 4, ptr %8) #21
  call void @llvm.lifetime.end.p0(i64 4, ptr %7) #21
  ret i32 %27
}