; Function Attrs: mustprogress uwtable
define noundef i32 @_ZN3zmq12udp_engine_t22set_udp_multicast_loopEibb(i32 noundef %0, i1 noundef zeroext %1, i1 noundef zeroext %2) local_unnamed_addr #0 align 2 {
  %4 = alloca i32, align 4
  %. = select i1 %1, i32 19, i32 34
  %.9 = select i1 %1, i32 41, i32 0
  call void @llvm.lifetime.start.p0(i64 4, ptr nonnull %4) #23
  %5 = zext i1 %2 to i32
  store i32 %5, ptr %4, align 4, !tbaa !76
  %6 = call i32 @setsockopt(i32 noundef %0, i32 noundef %.9, i32 noundef %., ptr noundef nonnull %4, i32 noundef 4) #23
  call void @_ZN3zmq29assert_success_or_recoverableEii(i32 noundef %0, i32 noundef %6)
  call void @llvm.lifetime.end.p0(i64 4, ptr nonnull %4) #23
  ret i32 %6
}